target datalayout = "e-m:e-p270:32:32-p271:32:32-p272:64:64-i64:64-i128:128-f80:128-n8:16:32:64-S128"
target triple = "x86_64-pc-linux-gnu"

%struct.IDAMemRec = type { double, ptr, ptr, i32, double, double, ptr, i32, ptr, ptr, i32, ptr, ptr, i32, i32, double, double, ptr, i32, i32, i32, ptr, ptr, i32, ptr, ptr, ptr, i32, double, i32, i32, double, ptr, ptr, i32, ptr, ptr, i32, i32, i32, double, ptr, ptr, [6 x ptr], [6 x double], [6 x double], [6 x double], [6 x double], [6 x double], ptr, ptr, ptr, ptr, ptr, ptr, ptr, ptr, ptr, ptr, ptr, ptr, ptr, ptr, ptr, [6 x ptr], ptr, ptr, ptr, ptr, [6 x ptr], ptr, ptr, ptr, ptr, ptr, ptr, ptr, ptr, ptr, ptr, ptr, ptr, ptr, ptr, [6 x ptr], ptr, ptr, ptr, ptr, ptr, double, ptr, ptr, i32, i32, i32, i32, i32, i32, i32, double, double, double, i32, double, i32, i32, i32, i32, double, double, double, double, double, double, double, double, double, double, double, double, double, double, i32, i32, i32, i32, i32, i64, double, i32, i64, i64, i64, i64, i64, i64, i64, i64, i64, i64, i64, i64, i64, i64, i64, i64, i64, i64, i64, i64, i64, i64, i64, i64, ptr, ptr, ptr, i32, i32, i32, i32, i32, i32, i32, i32, i32, i32, i32, i32, i32, ptr, ptr, ptr, ptr, ptr, ptr, i32, i32, i32, i32, i32, i32, double, double, double, ptr, i32, ptr, ptr, double, double, double, ptr, ptr, ptr, double, double, i32, i32, i64, ptr, i32, i32, ptr, i32 }

@.str = private unnamed_addr constant [5 x i8] c"IDAS\00", align 1
@.str.4 = private unnamed_addr constant [24 x i8] c"ida_mem = NULL illegal.\00", align 1
@.str.30 = private unnamed_addr constant [52 x i8] c"Illegal attempt to call before calling IDASensInit.\00", align 1
@.str.40 = private unnamed_addr constant [73 x i8] c"Forward sensitivity analysis for quadrature variables was not activated.\00", align 1
@.str.46 = private unnamed_addr constant [24 x i8] c"IDAQuadSensEEtolerances\00", align 1

; Function Attrs: nounwind uwtable
define i32 @IDAQuadSensEEtolerances(ptr noundef %0) #0 {
  %2 = alloca i32, align 4
  %3 = alloca ptr, align 8
  %4 = alloca ptr, align 8
  %5 = alloca i32, align 4
  store ptr %0, ptr %3, align 8, !tbaa !91
  call void @llvm.lifetime.start.p0(i64 8, ptr %4) #8
  %6 = load ptr, ptr %3, align 8, !tbaa !91
  %7 = icmp eq ptr %6, null
  br i1 %7, label %8, label %9

8:                                                ; preds = %1
  call void (ptr, i32, ptr, ptr, ptr, ...) @IDAProcessError(ptr noundef null, i32 noundef -20, ptr noundef @.str, ptr noundef @.str.46, ptr noundef @.str.4)
  store i32 -20, ptr %2, align 4
  store i32 1, ptr %5, align 4
  br label %27

9:                                                ; preds = %1
  %10 = load ptr, ptr %3, align 8, !tbaa !91
  store ptr %10, ptr %4, align 8, !tbaa !3
  %11 = load ptr, ptr %4, align 8, !tbaa !3
  %12 = getelementptr inbounds nuw %struct.IDAMemRec, ptr %11, i32 0, i32 18
  %13 = load i32, ptr %12, align 8, !tbaa !53
  %14 = icmp ne i32 %13, 0
  br i1 %14, label %17, label %15

15:                                               ; preds = %9
  %16 = load ptr, ptr %4, align 8, !tbaa !3
  call void (ptr, i32, ptr, ptr, ptr, ...) @IDAProcessError(ptr noundef %16, i32 noundef -40, ptr noundef @.str, ptr noundef @.str.46, ptr noundef @.str.30)
  store i32 -40, ptr %2, align 4
  store i32 1, ptr %5, align 4
  br label %27

17:                                               ; preds = %9
  %18 = load ptr, ptr %4, align 8, !tbaa !3
  %19 = getelementptr inbounds nuw %struct.IDAMemRec, ptr %18, i32 0, i32 170
  %20 = load i32, ptr %19, align 8, !tbaa !86
  %21 = icmp ne i32 %20, 0
  br i1 %21, label %24, label %22

22:                                               ; preds = %17
  %23 = load ptr, ptr %4, align 8, !tbaa !3
  call void (ptr, i32, ptr, ptr, ptr, ...) @IDAProcessError(ptr noundef %23, i32 noundef -50, ptr noundef @.str, ptr noundef @.str.46, ptr noundef @.str.40)
  store i32 -50, ptr %2, align 4
  store i32 1, ptr %5, align 4
  br label %27

24:                                               ; preds = %17
  %25 = load ptr, ptr %4, align 8, !tbaa !3
  %26 = getelementptr inbounds nuw %struct.IDAMemRec, ptr %25, i32 0, i32 39
  store i32 4, ptr %26, align 8, !tbaa !70
  store i32 0, ptr %2, align 4
  store i32 1, ptr %5, align 4
  br label %27

27:                                               ; preds = %24, %22, %15, %8
  call void @llvm.lifetime.end.p0(i64 8, ptr %4) #8
  %28 = load i32, ptr %2, align 4
  ret i32 %28
}